; Function Attrs: mustprogress nofree norecurse nosync nounwind willreturn memory(argmem: readwrite) uwtable
define internal noundef zeroext i1 @"_ZNSt17_Function_handlerIFN32pxrInternal_v0_24__pxrReserved__26SdfPredicateFunctionResultERKNS0_7SdfPathEEZNS0_19SdfPredicateLibraryIS4_E14_TryToBindCallIZL10TestSearchvE3$_0EESt8functionIS5_ERKT_RKSt6vectorINS0_22SdfPredicateExpression5FnArgESaISH_EERKNS0_33SdfPredicateParamNamesAndDefaultsEEUlS4_E_E10_M_managerERSt9_Any_dataRKSR_St18_Manager_operation"(ptr nocapture noundef nonnull writeonly align 8 dereferenceable(16) %0, ptr noundef nonnull align 8 dereferenceable(16) %1, i32 noundef %2) #18 align 2 personality ptr @__gxx_personality_v0 {
  switch i32 %2, label %"_ZNSt14_Function_base13_Base_managerIZN32pxrInternal_v0_24__pxrReserved__19SdfPredicateLibraryIRKNS1_7SdfPathEE14_TryToBindCallIZL10TestSearchvE3$_0EESt8functionIFNS1_26SdfPredicateFunctionResultES5_EERKT_RKSt6vectorINS1_22SdfPredicateExpression5FnArgESaISI_EERKNS1_33SdfPredicateParamNamesAndDefaultsEEUlS5_E_E10_M_managerERSt9_Any_dataRKSS_St18_Manager_operation.exit" [
    i32 0, label %4
    i32 1, label %5
    i32 2, label %6
  ]

4:                                                ; preds = %3
  store ptr @"_ZTIZN32pxrInternal_v0_24__pxrReserved__19SdfPredicateLibraryIRKNS_7SdfPathEE14_TryToBindCallIZL10TestSearchvE3$_0EESt8functionIFNS_26SdfPredicateFunctionResultES3_EERKT_RKSt6vectorINS_22SdfPredicateExpression5FnArgESaISG_EERKNS_33SdfPredicateParamNamesAndDefaultsEEUlS3_E_", ptr %0, align 8
  br label %"_ZNSt14_Function_base13_Base_managerIZN32pxrInternal_v0_24__pxrReserved__19SdfPredicateLibraryIRKNS1_7SdfPathEE14_TryToBindCallIZL10TestSearchvE3$_0EESt8functionIFNS1_26SdfPredicateFunctionResultES5_EERKT_RKSt6vectorINS1_22SdfPredicateExpression5FnArgESaISI_EERKNS1_33SdfPredicateParamNamesAndDefaultsEEUlS5_E_E10_M_managerERSt9_Any_dataRKSS_St18_Manager_operation.exit"

5:                                                ; preds = %3
  store ptr %1, ptr %0, align 8
  br label %"_ZNSt14_Function_base13_Base_managerIZN32pxrInternal_v0_24__pxrReserved__19SdfPredicateLibraryIRKNS1_7SdfPathEE14_TryToBindCallIZL10TestSearchvE3$_0EESt8functionIFNS1_26SdfPredicateFunctionResultES5_EERKT_RKSt6vectorINS1_22SdfPredicateExpression5FnArgESaISI_EERKNS1_33SdfPredicateParamNamesAndDefaultsEEUlS5_E_E10_M_managerERSt9_Any_dataRKSS_St18_Manager_operation.exit"

6:                                                ; preds = %3
  %.val.i = load i16, ptr %1, align 8
  store i16 %.val.i, ptr %0, align 8
  br label %"_ZNSt14_Function_base13_Base_managerIZN32pxrInternal_v0_24__pxrReserved__19SdfPredicateLibraryIRKNS1_7SdfPathEE14_TryToBindCallIZL10TestSearchvE3$_0EESt8functionIFNS1_26SdfPredicateFunctionResultES5_EERKT_RKSt6vectorINS1_22SdfPredicateExpression5FnArgESaISI_EERKNS1_33SdfPredicateParamNamesAndDefaultsEEUlS5_E_E10_M_managerERSt9_Any_dataRKSS_St18_Manager_operation.exit"

"_ZNSt14_Function_base13_Base_managerIZN32pxrInternal_v0_24__pxrReserved__19SdfPredicateLibraryIRKNS1_7SdfPathEE14_TryToBindCallIZL10TestSearchvE3$_0EESt8functionIFNS1_26SdfPredicateFunctionResultES5_EERKT_RKSt6vectorINS1_22SdfPredicateExpression5FnArgESaISI_EERKNS1_33SdfPredicateParamNamesAndDefaultsEEUlS5_E_E10_M_managerERSt9_Any_dataRKSS_St18_Manager_operation.exit": ; preds = %3, %6, %5, %4
  ret i1 false
}